target datalayout = "e-m:e-p270:32:32-p271:32:32-p272:64:64-i64:64-i128:128-f80:128-n8:16:32:64-S128"
target triple = "x86_64-pc-linux-gnu"

%struct.Clobbers = type { [4 x i64] }
%struct.AsmTarget = type { i8, ptr, ptr, [4096 x %struct.AsmRegister], [4096 x %struct.AsmInstruction], i32 }
%struct.AsmRegister = type { ptr, i32, i32, i32 }
%struct.AsmInstruction = type { ptr, [6 x %struct.AsmArgType], i32, %struct.Clobbers }
%struct.AsmArgType = type <{ i64, i32 }>

@asm_target = external global %struct.AsmTarget, align 8

; Function Attrs: nounwind uwtable
define dso_local ptr @asm_reg_by_name(ptr noundef %0) #0 {
  %2 = alloca ptr, align 8
  %3 = alloca ptr, align 8
  %4 = alloca i32, align 4
  %5 = alloca i32, align 4
  %6 = alloca ptr, align 8
  %7 = alloca ptr, align 8
  store ptr %0, ptr %3, align 8
  %8 = load ptr, ptr %3, align 8
  %9 = ptrtoint ptr %8 to i64
  %10 = mul i64 %9, 31
  %11 = load ptr, ptr %3, align 8
  %12 = ptrtoint ptr %11 to i64
  %13 = lshr i64 %12, 15
  %14 = xor i64 %10, %13
  %15 = trunc i64 %14 to i32
  store i32 %15, ptr %4, align 4
  %16 = load i32, ptr %4, align 4
  %17 = and i32 %16, 4095
  store i32 %17, ptr %5, align 4
  br label %18

18:                                               ; preds = %34, %1
  %19 = load i32, ptr %5, align 4
  %20 = zext i32 %19 to i64
  %21 = getelementptr inbounds [4096 x %struct.AsmRegister], ptr getelementptr inbounds (%struct.AsmTarget, ptr @asm_target, i32 0, i32 3), i64 0, i64 %20
  store ptr %21, ptr %6, align 8
  %22 = load ptr, ptr %6, align 8
  %23 = getelementptr inbounds %struct.AsmRegister, ptr %22, i32 0, i32 0
  %24 = load ptr, ptr %23, align 8
  store ptr %24, ptr %7, align 8
  %25 = load ptr, ptr %7, align 8
  %26 = load ptr, ptr %3, align 8
  %27 = icmp eq ptr %25, %26
  br i1 %27, label %28, label %30

28:                                               ; preds = %18
  %29 = load ptr, ptr %6, align 8
  store ptr %29, ptr %2, align 8
  br label %38

30:                                               ; preds = %18
  %31 = load ptr, ptr %7, align 8
  %32 = icmp ne ptr %31, null
  br i1 %32, label %34, label %33

33:                                               ; preds = %30
  store ptr null, ptr %2, align 8
  br label %38

34:                                               ; preds = %30
  %35 = load i32, ptr %5, align 4
  %36 = add i32 %35, 1
  %37 = and i32 %36, 4095
  store i32 %37, ptr %5, align 4
  br label %18

38:                                               ; preds = %33, %28
  %39 = load ptr, ptr %2, align 8
  ret ptr %39
}